target datalayout = "e-m:e-p270:32:32-p271:32:32-p272:64:64-i64:64-i128:128-f80:128-n8:16:32:64-S128"
target triple = "x86_64-pc-linux-gnu"

%struct.hm_header_st = type { i8, i32, i16, i32, i32, i32, i16 }

; Function Attrs: nounwind uwtable
define hidden void @dtls1_get_message_header(ptr noundef %0, ptr noundef %1) #0 {
  %3 = alloca ptr, align 8
  %4 = alloca ptr, align 8
  store ptr %0, ptr %3, align 8, !tbaa !49
  store ptr %1, ptr %4, align 8, !tbaa !115
  %5 = load ptr, ptr %4, align 8, !tbaa !115
  call void @llvm.memset.p0.i64(ptr align 4 %5, i8 0, i64 28, i1 false)
  %6 = load ptr, ptr %3, align 8, !tbaa !49
  %7 = getelementptr inbounds nuw i8, ptr %6, i32 1
  store ptr %7, ptr %3, align 8, !tbaa !49
  %8 = load i8, ptr %6, align 1, !tbaa !111
  %9 = load ptr, ptr %4, align 8, !tbaa !115
  %10 = getelementptr inbounds nuw %struct.hm_header_st, ptr %9, i32 0, i32 0
  store i8 %8, ptr %10, align 4, !tbaa !117
  %11 = load ptr, ptr %3, align 8, !tbaa !49
  %12 = getelementptr inbounds i8, ptr %11, i64 0
  %13 = load i8, ptr %12, align 1, !tbaa !111
  %14 = zext i8 %13 to i64
  %15 = shl i64 %14, 16
  %16 = load ptr, ptr %3, align 8, !tbaa !49
  %17 = getelementptr inbounds i8, ptr %16, i64 1
  %18 = load i8, ptr %17, align 1, !tbaa !111
  %19 = zext i8 %18 to i64
  %20 = shl i64 %19, 8
  %21 = or i64 %15, %20
  %22 = load ptr, ptr %3, align 8, !tbaa !49
  %23 = getelementptr inbounds i8, ptr %22, i64 2
  %24 = load i8, ptr %23, align 1, !tbaa !111
  %25 = zext i8 %24 to i64
  %26 = or i64 %21, %25
  %27 = trunc i64 %26 to i32
  %28 = load ptr, ptr %4, align 8, !tbaa !115
  %29 = getelementptr inbounds nuw %struct.hm_header_st, ptr %28, i32 0, i32 1
  store i32 %27, ptr %29, align 4, !tbaa !99
  %30 = load ptr, ptr %3, align 8, !tbaa !49
  %31 = getelementptr inbounds i8, ptr %30, i64 3
  store ptr %31, ptr %3, align 8, !tbaa !49
  %32 = load ptr, ptr %3, align 8, !tbaa !49
  %33 = getelementptr inbounds i8, ptr %32, i64 0
  %34 = load i8, ptr %33, align 1, !tbaa !111
  %35 = zext i8 %34 to i32
  %36 = shl i32 %35, 8
  %37 = load ptr, ptr %3, align 8, !tbaa !49
  %38 = getelementptr inbounds i8, ptr %37, i64 1
  %39 = load i8, ptr %38, align 1, !tbaa !111
  %40 = zext i8 %39 to i32
  %41 = or i32 %36, %40
  %42 = trunc i32 %41 to i16
  %43 = load ptr, ptr %4, align 8, !tbaa !115
  %44 = getelementptr inbounds nuw %struct.hm_header_st, ptr %43, i32 0, i32 2
  store i16 %42, ptr %44, align 4, !tbaa !101
  %45 = load ptr, ptr %3, align 8, !tbaa !49
  %46 = getelementptr inbounds i8, ptr %45, i64 2
  store ptr %46, ptr %3, align 8, !tbaa !49
  %47 = load ptr, ptr %3, align 8, !tbaa !49
  %48 = getelementptr inbounds i8, ptr %47, i64 0
  %49 = load i8, ptr %48, align 1, !tbaa !111
  %50 = zext i8 %49 to i64
  %51 = shl i64 %50, 16
  %52 = load ptr, ptr %3, align 8, !tbaa !49
  %53 = getelementptr inbounds i8, ptr %52, i64 1
  %54 = load i8, ptr %53, align 1, !tbaa !111
  %55 = zext i8 %54 to i64
  %56 = shl i64 %55, 8
  %57 = or i64 %51, %56
  %58 = load ptr, ptr %3, align 8, !tbaa !49
  %59 = getelementptr inbounds i8, ptr %58, i64 2
  %60 = load i8, ptr %59, align 1, !tbaa !111
  %61 = zext i8 %60 to i64
  %62 = or i64 %57, %61
  %63 = trunc i64 %62 to i32
  %64 = load ptr, ptr %4, align 8, !tbaa !115
  %65 = getelementptr inbounds nuw %struct.hm_header_st, ptr %64, i32 0, i32 3
  store i32 %63, ptr %65, align 4, !tbaa !97
  %66 = load ptr, ptr %3, align 8, !tbaa !49
  %67 = getelementptr inbounds i8, ptr %66, i64 3
  store ptr %67, ptr %3, align 8, !tbaa !49
  %68 = load ptr, ptr %3, align 8, !tbaa !49
  %69 = getelementptr inbounds i8, ptr %68, i64 0
  %70 = load i8, ptr %69, align 1, !tbaa !111
  %71 = zext i8 %70 to i64
  %72 = shl i64 %71, 16
  %73 = load ptr, ptr %3, align 8, !tbaa !49
  %74 = getelementptr inbounds i8, ptr %73, i64 1
  %75 = load i8, ptr %74, align 1, !tbaa !111
  %76 = zext i8 %75 to i64
  %77 = shl i64 %76, 8
  %78 = or i64 %72, %77
  %79 = load ptr, ptr %3, align 8, !tbaa !49
  %80 = getelementptr inbounds i8, ptr %79, i64 2
  %81 = load i8, ptr %80, align 1, !tbaa !111
  %82 = zext i8 %81 to i64
  %83 = or i64 %78, %82
  %84 = trunc i64 %83 to i32
  %85 = load ptr, ptr %4, align 8, !tbaa !115
  %86 = getelementptr inbounds nuw %struct.hm_header_st, ptr %85, i32 0, i32 4
  store i32 %84, ptr %86, align 4, !tbaa !98
  %87 = load ptr, ptr %3, align 8, !tbaa !49
  %88 = getelementptr inbounds i8, ptr %87, i64 3
  store ptr %88, ptr %3, align 8, !tbaa !49
  ret void
}