; Function Attrs: mustprogress nofree norecurse nosync nounwind willreturn memory(argmem: readwrite) uwtable
define hidden void @dtls1_get_message_header(ptr noundef readonly captures(none) %0, ptr noundef writeonly captures(none) initializes((0, 28)) %1) local_unnamed_addr #10 {
  tail call void @llvm.memset.p0.i64(ptr noundef nonnull align 4 dereferenceable(28) %1, i8 0, i64 28, i1 false)
  %3 = getelementptr inbounds nuw i8, ptr %0, i64 1
  %4 = load i8, ptr %0, align 1, !tbaa !84
  store i8 %4, ptr %1, align 4, !tbaa !99
  %5 = load i8, ptr %3, align 1, !tbaa !84
  %6 = zext i8 %5 to i32
  %7 = shl nuw nsw i32 %6, 16
  %8 = getelementptr inbounds nuw i8, ptr %0, i64 2
  %9 = load i8, ptr %8, align 1, !tbaa !84
  %10 = zext i8 %9 to i32
  %11 = shl nuw nsw i32 %10, 8
  %12 = or disjoint i32 %11, %7
  %13 = getelementptr inbounds nuw i8, ptr %0, i64 3
  %14 = load i8, ptr %13, align 1, !tbaa !84
  %15 = zext i8 %14 to i32
  %16 = or disjoint i32 %12, %15
  %17 = getelementptr inbounds nuw i8, ptr %1, i64 4
  store i32 %16, ptr %17, align 4, !tbaa !100
  %18 = getelementptr inbounds nuw i8, ptr %0, i64 4
  %19 = load i8, ptr %18, align 1, !tbaa !84
  %20 = zext i8 %19 to i16
  %21 = shl nuw i16 %20, 8
  %22 = getelementptr inbounds nuw i8, ptr %0, i64 5
  %23 = load i8, ptr %22, align 1, !tbaa !84
  %24 = zext i8 %23 to i16
  %25 = or disjoint i16 %21, %24
  %26 = getelementptr inbounds nuw i8, ptr %1, i64 8
  store i16 %25, ptr %26, align 4, !tbaa !101
  %27 = getelementptr inbounds nuw i8, ptr %0, i64 6
  %28 = load i8, ptr %27, align 1, !tbaa !84
  %29 = zext i8 %28 to i32
  %30 = shl nuw nsw i32 %29, 16
  %31 = getelementptr inbounds nuw i8, ptr %0, i64 7
  %32 = load i8, ptr %31, align 1, !tbaa !84
  %33 = zext i8 %32 to i32
  %34 = shl nuw nsw i32 %33, 8
  %35 = or disjoint i32 %34, %30
  %36 = getelementptr inbounds nuw i8, ptr %0, i64 8
  %37 = load i8, ptr %36, align 1, !tbaa !84
  %38 = zext i8 %37 to i32
  %39 = or disjoint i32 %35, %38
  %40 = getelementptr inbounds nuw i8, ptr %1, i64 12
  store i32 %39, ptr %40, align 4, !tbaa !102
  %41 = getelementptr inbounds nuw i8, ptr %0, i64 9
  %42 = load i8, ptr %41, align 1, !tbaa !84
  %43 = zext i8 %42 to i32
  %44 = shl nuw nsw i32 %43, 16
  %45 = getelementptr inbounds nuw i8, ptr %0, i64 10
  %46 = load i8, ptr %45, align 1, !tbaa !84
  %47 = zext i8 %46 to i32
  %48 = shl nuw nsw i32 %47, 8
  %49 = or disjoint i32 %48, %44
  %50 = getelementptr inbounds nuw i8, ptr %0, i64 11
  %51 = load i8, ptr %50, align 1, !tbaa !84
  %52 = zext i8 %51 to i32
  %53 = or disjoint i32 %49, %52
  %54 = getelementptr inbounds nuw i8, ptr %1, i64 16
  store i32 %53, ptr %54, align 4, !tbaa !103
  ret void
}